target datalayout = "e-m:e-p270:32:32-p271:32:32-p272:64:64-i64:64-i128:128-f80:128-n8:16:32:64-S128"
target triple = "x86_64-pc-linux-gnu"

%class.FloatValue = type <{ %class.Value, float, [4 x i8] }>
%class.Value = type { ptr }

; Function Attrs: mustprogress uwtable
define void @_ZN10FloatValue3setERK5Value(ptr noundef nonnull align 8 dereferenceable(12) %0, ptr noundef nonnull align 8 dereferenceable(8) %1) unnamed_addr #1 align 2 {
  %3 = alloca ptr, align 8
  %4 = alloca ptr, align 8
  store ptr %0, ptr %3, align 8
  store ptr %1, ptr %4, align 8
  %5 = load ptr, ptr %3, align 8
  %6 = load ptr, ptr %4, align 8
  %7 = load ptr, ptr %6, align 8
  %8 = getelementptr inbounds ptr, ptr %7, i64 4
  %9 = load ptr, ptr %8, align 8
  %10 = call noundef float %9(ptr noundef nonnull align 8 dereferenceable(8) %6)
  %11 = getelementptr inbounds %class.FloatValue, ptr %5, i32 0, i32 1
  store float %10, ptr %11, align 8
  ret void
}