; Function Attrs: mustprogress uwtable
define void @_ZN10FloatValue3setERK5Value(ptr nocapture noundef nonnull writeonly align 8 dereferenceable(12) %0, ptr noundef nonnull align 8 dereferenceable(8) %1) unnamed_addr #2 align 2 {
  %3 = load ptr, ptr %1, align 8
  %4 = getelementptr inbounds i8, ptr %3, i64 32
  %5 = load ptr, ptr %4, align 8
  %6 = tail call noundef float %5(ptr noundef nonnull align 8 dereferenceable(8) %1)
  %7 = getelementptr inbounds i8, ptr %0, i64 8
  store float %6, ptr %7, align 8
  ret void
}